; Function Attrs: mustprogress nounwind uwtable
define void @_ZN5boost3log11v2_mt_posix3aux18atomic_based_event4waitEv(ptr noundef nonnull align 4 dereferenceable(4) %0) local_unnamed_addr #0 align 2 {
  %2 = atomicrmw volatile xchg ptr %0, i32 0 acq_rel, align 4
  %3 = icmp eq i32 %2, 0
  br i1 %3, label %.lr.ph3, label %_ZN5boost7atomics6detail15wait_operationsINS1_15core_operationsILm4ELb0ELb0EEELm4ELb1ELb0EE4waitERVKjjNS_12memory_orderE.exit._crit_edge

_ZN5boost7atomics6detail15wait_operationsINS1_15core_operationsILm4ELb0ELb0EEELm4ELb1ELb0EE4waitERVKjjNS_12memory_orderE.exit.loopexit: ; preds = %.lr.ph, %.lr.ph3
  %4 = atomicrmw volatile xchg ptr %0, i32 0 acq_rel, align 4
  %5 = icmp eq i32 %4, 0
  br i1 %5, label %.lr.ph3, label %_ZN5boost7atomics6detail15wait_operationsINS1_15core_operationsILm4ELb0ELb0EEELm4ELb1ELb0EE4waitERVKjjNS_12memory_orderE.exit._crit_edge, !llvm.loop !3

.lr.ph3:                                          ; preds = %1, %_ZN5boost7atomics6detail15wait_operationsINS1_15core_operationsILm4ELb0ELb0EEELm4ELb1ELb0EE4waitERVKjjNS_12memory_orderE.exit.loopexit
  %6 = load atomic volatile i32, ptr %0 monotonic, align 4
  %7 = icmp eq i32 %6, 0
  br i1 %7, label %.lr.ph, label %_ZN5boost7atomics6detail15wait_operationsINS1_15core_operationsILm4ELb0ELb0EEELm4ELb1ELb0EE4waitERVKjjNS_12memory_orderE.exit.loopexit

.lr.ph:                                           ; preds = %.lr.ph3, %.lr.ph
  %8 = tail call i64 (i64, ...) @syscall(i64 noundef 202, ptr noundef nonnull align 4 dereferenceable(4) %0, i32 noundef 128, i32 noundef 0, ptr noundef null, ptr noundef null, i32 noundef 0) #2
  %9 = load atomic volatile i32, ptr %0 monotonic, align 4
  %10 = icmp eq i32 %9, 0
  br i1 %10, label %.lr.ph, label %_ZN5boost7atomics6detail15wait_operationsINS1_15core_operationsILm4ELb0ELb0EEELm4ELb1ELb0EE4waitERVKjjNS_12memory_orderE.exit.loopexit, !llvm.loop !5

_ZN5boost7atomics6detail15wait_operationsINS1_15core_operationsILm4ELb0ELb0EEELm4ELb1ELb0EE4waitERVKjjNS_12memory_orderE.exit._crit_edge: ; preds = %_ZN5boost7atomics6detail15wait_operationsINS1_15core_operationsILm4ELb0ELb0EEELm4ELb1ELb0EE4waitERVKjjNS_12memory_orderE.exit.loopexit, %1
  ret void
}